; Function Attrs: mustprogress nofree norecurse nosync nounwind willreturn memory(argmem: read) uwtable
define range(i32 0, 2) i32 @Kit_PlaIsBuf(ptr noundef readonly captures(none) %0) local_unnamed_addr #0 {
  %2 = getelementptr inbounds nuw i8, ptr %0, i64 4
  %3 = load i8, ptr %2, align 1, !tbaa !3
  %.not = icmp eq i8 %3, 0
  br i1 %.not, label %4, label %14

4:                                                ; preds = %1
  %5 = load i8, ptr %0, align 1, !tbaa !3
  switch i8 %5, label %.thread [
    i8 49, label %6
    i8 48, label %10
  ]

6:                                                ; preds = %4
  %7 = getelementptr inbounds nuw i8, ptr %0, i64 2
  %8 = load i8, ptr %7, align 1, !tbaa !3
  %9 = icmp eq i8 %8, 49
  br i1 %9, label %14, label %.thread

10:                                               ; preds = %4
  %11 = getelementptr inbounds nuw i8, ptr %0, i64 2
  %12 = load i8, ptr %11, align 1, !tbaa !3
  %13 = icmp eq i8 %12, 48
  br i1 %13, label %14, label %.thread

.thread:                                          ; preds = %4, %6, %10
  br label %14

14:                                               ; preds = %6, %10, %1, %.thread
  %.0 = phi i32 [ 0, %.thread ], [ 0, %1 ], [ 1, %10 ], [ 1, %6 ]
  ret i32 %.0
}